target datalayout = "e-m:e-p270:32:32-p271:32:32-p272:64:64-i64:64-i128:128-f80:128-n8:16:32:64-S128"
target triple = "x86_64-pc-linux-gnu"

%struct._zval_struct = type { %union._zend_value, %union.anon, %union.anon.2 }
%union._zend_value = type { i64 }
%union.anon = type { i32 }
%union.anon.2 = type { i32 }
%struct._zend_objects_store = type { ptr, i32, i32, i32 }
%struct._zend_refcounted_h = type { i32, %union.anon.3 }
%union.anon.3 = type { i32 }
%struct._zend_object = type { %struct._zend_refcounted_h, i32, ptr, ptr, ptr, [1 x %struct._zval_struct] }

; Function Attrs: nounwind uwtable
define void @zend_objects_store_mark_destructed(ptr noundef %0) #0 {
  %2 = alloca ptr, align 8
  %3 = alloca ptr, align 8
  %4 = alloca ptr, align 8
  %5 = alloca ptr, align 8
  store ptr %0, ptr %2, align 8
  %6 = load ptr, ptr %2, align 8
  %7 = getelementptr inbounds %struct._zend_objects_store, ptr %6, i32 0, i32 0
  %8 = load ptr, ptr %7, align 8
  %9 = icmp ne ptr %8, null
  br i1 %9, label %10, label %51

10:                                               ; preds = %1
  %11 = load ptr, ptr %2, align 8
  %12 = getelementptr inbounds %struct._zend_objects_store, ptr %11, i32 0, i32 1
  %13 = load i32, ptr %12, align 8
  %14 = icmp ugt i32 %13, 1
  br i1 %14, label %15, label %51

15:                                               ; preds = %10
  %16 = load ptr, ptr %2, align 8
  %17 = getelementptr inbounds %struct._zend_objects_store, ptr %16, i32 0, i32 0
  %18 = load ptr, ptr %17, align 8
  %19 = getelementptr inbounds ptr, ptr %18, i64 1
  store ptr %19, ptr %3, align 8
  %20 = load ptr, ptr %2, align 8
  %21 = getelementptr inbounds %struct._zend_objects_store, ptr %20, i32 0, i32 0
  %22 = load ptr, ptr %21, align 8
  %23 = load ptr, ptr %2, align 8
  %24 = getelementptr inbounds %struct._zend_objects_store, ptr %23, i32 0, i32 1
  %25 = load i32, ptr %24, align 8
  %26 = zext i32 %25 to i64
  %27 = getelementptr inbounds ptr, ptr %22, i64 %26
  store ptr %27, ptr %4, align 8
  br label %28

28:                                               ; preds = %46, %15
  %29 = load ptr, ptr %3, align 8
  %30 = load ptr, ptr %29, align 8
  store ptr %30, ptr %5, align 8
  %31 = load ptr, ptr %5, align 8
  %32 = ptrtoint ptr %31 to i64
  %33 = and i64 %32, 1
  %34 = icmp ne i64 %33, 0
  br i1 %34, label %43, label %35

35:                                               ; preds = %28
  br label %36

36:                                               ; preds = %35
  %37 = load ptr, ptr %5, align 8
  %38 = getelementptr inbounds %struct._zend_object, ptr %37, i32 0, i32 0
  %39 = getelementptr inbounds %struct._zend_refcounted_h, ptr %38, i32 0, i32 1
  %40 = load i32, ptr %39, align 4
  %41 = or i32 %40, 256
  store i32 %41, ptr %39, align 4
  br label %42

42:                                               ; preds = %36
  br label %43

43:                                               ; preds = %42, %28
  %44 = load ptr, ptr %3, align 8
  %45 = getelementptr inbounds ptr, ptr %44, i32 1
  store ptr %45, ptr %3, align 8
  br label %46

46:                                               ; preds = %43
  %47 = load ptr, ptr %3, align 8
  %48 = load ptr, ptr %4, align 8
  %49 = icmp ne ptr %47, %48
  br i1 %49, label %28, label %50

50:                                               ; preds = %46
  br label %51

51:                                               ; preds = %50, %10, %1
  ret void
}