; Function Attrs: nofree norecurse nosync nounwind memory(readwrite, inaccessiblemem: none) uwtable
define void @zend_objects_store_mark_destructed(ptr nocapture noundef readonly %0) local_unnamed_addr #3 {
  %2 = load ptr, ptr %0, align 8
  %.not = icmp eq ptr %2, null
  br i1 %.not, label %.loopexit, label %3

3:                                                ; preds = %1
  %4 = getelementptr inbounds i8, ptr %0, i64 8
  %5 = load i32, ptr %4, align 8
  %6 = icmp ugt i32 %5, 1
  br i1 %6, label %7, label %.loopexit

7:                                                ; preds = %3
  %8 = getelementptr inbounds i8, ptr %2, i64 8
  %9 = zext i32 %5 to i64
  %10 = getelementptr inbounds ptr, ptr %2, i64 %9
  br label %11

11:                                               ; preds = %19, %7
  %.0 = phi ptr [ %8, %7 ], [ %20, %19 ]
  %12 = load ptr, ptr %.0, align 8
  %13 = ptrtoint ptr %12 to i64
  %14 = and i64 %13, 1
  %.not14 = icmp eq i64 %14, 0
  br i1 %.not14, label %15, label %19

15:                                               ; preds = %11
  %16 = getelementptr inbounds i8, ptr %12, i64 4
  %17 = load i32, ptr %16, align 4
  %18 = or i32 %17, 256
  store i32 %18, ptr %16, align 4
  br label %19

19:                                               ; preds = %15, %11
  %20 = getelementptr inbounds i8, ptr %.0, i64 8
  %.not15 = icmp eq ptr %20, %10
  br i1 %.not15, label %.loopexit, label %11

.loopexit:                                        ; preds = %19, %3, %1
  ret void
}